; Function Attrs: mustprogress uwtable
define dso_local void @_ZN21cmCursesOptionsWidget10NextOptionEv(ptr noundef nonnull align 8 dereferenceable(96) %0) local_unnamed_addr #0 align 2 {
  %2 = getelementptr inbounds i8, ptr %0, i64 88
  %3 = load i64, ptr %2, align 8
  %4 = add i64 %3, 1
  store i64 %4, ptr %2, align 8
  %5 = getelementptr inbounds i8, ptr %0, i64 64
  %6 = getelementptr inbounds i8, ptr %0, i64 72
  %7 = load ptr, ptr %6, align 8
  %8 = load ptr, ptr %5, align 8
  %9 = ptrtoint ptr %7 to i64
  %10 = ptrtoint ptr %8 to i64
  %11 = sub i64 %9, %10
  %12 = ashr exact i64 %11, 5
  %13 = add nsw i64 %12, -1
  %14 = icmp ugt i64 %4, %13
  br i1 %14, label %15, label %16

15:                                               ; preds = %1
  store i64 0, ptr %2, align 8
  br label %16

16:                                               ; preds = %15, %1
  %17 = phi i64 [ 0, %15 ], [ %4, %1 ]
  %18 = getelementptr inbounds %"class.std::__cxx11::basic_string", ptr %8, i64 %17
  %19 = load ptr, ptr %0, align 8
  %20 = getelementptr inbounds i8, ptr %19, i64 32
  %21 = load ptr, ptr %20, align 8
  tail call void %21(ptr noundef nonnull align 8 dereferenceable(60) %0, ptr noundef nonnull align 8 dereferenceable(32) %18)
  ret void
}